target datalayout = "e-m:e-p270:32:32-p271:32:32-p272:64:64-i64:64-i128:128-f80:128-n8:16:32:64-S128"
target triple = "x86_64-pc-linux-gnu"

%struct._lv_animimg_t = type { %struct._lv_image_t, %struct._lv_anim_t, ptr, i8 }
%struct._lv_image_t = type { %struct._lv_obj_t, ptr, ptr, %struct.lv_point_t, i32, i32, i32, i32, i32, %struct.lv_point_t, i16 }
%struct._lv_obj_t = type { ptr, ptr, ptr, ptr, ptr, %struct.lv_area_t, i32, i16, i16 }
%struct.lv_area_t = type { i32, i32, i32, i32 }
%struct.lv_point_t = type { i32, i32 }
%struct._lv_anim_t = type { ptr, ptr, ptr, ptr, ptr, ptr, ptr, ptr, ptr, i32, i32, i32, i32, i32, i32, i32, i32, i32, %union._lv_anim_path_para_t, i32, i32, i32, i8 }
%union._lv_anim_path_para_t = type { %struct.lv_anim_bezier3_para_t }
%struct.lv_anim_bezier3_para_t = type { i16, i16, i16, i16 }

; Function Attrs: nounwind uwtable
define internal void @index_change(ptr noundef %0, i32 noundef %1) #0 {
  %3 = alloca ptr, align 8
  %4 = alloca i32, align 4
  %5 = alloca ptr, align 8
  %6 = alloca i32, align 4
  store ptr %0, ptr %3, align 8, !tbaa !8
  store i32 %1, ptr %4, align 4, !tbaa !27
  call void @llvm.lifetime.start.p0(i64 8, ptr %5) #3
  %7 = load ptr, ptr %3, align 8, !tbaa !8
  store ptr %7, ptr %5, align 8, !tbaa !10
  %8 = load ptr, ptr %5, align 8, !tbaa !10
  %9 = getelementptr inbounds nuw %struct._lv_animimg_t, ptr %8, i32 0, i32 2
  %10 = load ptr, ptr %9, align 8, !tbaa !12
  %11 = icmp eq ptr %10, null
  br i1 %11, label %12, label %16

12:                                               ; preds = %2
  br label %13

13:                                               ; preds = %12
  br label %14

14:                                               ; preds = %13
  br label %15

15:                                               ; preds = %14
  store i32 1, ptr %6, align 4
  br label %38

16:                                               ; preds = %2
  %17 = load i32, ptr %4, align 4, !tbaa !27
  %18 = load ptr, ptr %5, align 8, !tbaa !10
  %19 = getelementptr inbounds nuw %struct._lv_animimg_t, ptr %18, i32 0, i32 3
  %20 = load i8, ptr %19, align 8, !tbaa !23
  %21 = sext i8 %20 to i32
  %22 = icmp sge i32 %17, %21
  br i1 %22, label %23, label %29

23:                                               ; preds = %16
  %24 = load ptr, ptr %5, align 8, !tbaa !10
  %25 = getelementptr inbounds nuw %struct._lv_animimg_t, ptr %24, i32 0, i32 3
  %26 = load i8, ptr %25, align 8, !tbaa !23
  %27 = sext i8 %26 to i32
  %28 = sub nsw i32 %27, 1
  store i32 %28, ptr %4, align 4, !tbaa !27
  br label %29

29:                                               ; preds = %23, %16
  %30 = load ptr, ptr %3, align 8, !tbaa !8
  %31 = load ptr, ptr %5, align 8, !tbaa !10
  %32 = getelementptr inbounds nuw %struct._lv_animimg_t, ptr %31, i32 0, i32 2
  %33 = load ptr, ptr %32, align 8, !tbaa !12
  %34 = load i32, ptr %4, align 4, !tbaa !27
  %35 = sext i32 %34 to i64
  %36 = getelementptr inbounds ptr, ptr %33, i64 %35
  %37 = load ptr, ptr %36, align 8, !tbaa !24
  call void @lv_image_set_src(ptr noundef %30, ptr noundef %37)
  store i32 0, ptr %6, align 4
  br label %38

38:                                               ; preds = %29, %15
  call void @llvm.lifetime.end.p0(i64 8, ptr %5) #3
  %39 = load i32, ptr %6, align 4
  switch i32 %39, label %41 [
    i32 0, label %40
    i32 1, label %40
  ]

40:                                               ; preds = %38, %38
  ret void

41:                                               ; preds = %38
  unreachable
}