; Function Attrs: nounwind uwtable
define internal void @index_change(ptr noundef %0, i32 noundef %1) #0 {
  %3 = getelementptr inbounds nuw i8, ptr %0, i64 256
  %4 = load ptr, ptr %3, align 8, !tbaa !3
  %5 = icmp eq ptr %4, null
  br i1 %5, label %14, label %6

6:                                                ; preds = %2
  %7 = getelementptr inbounds nuw i8, ptr %0, i64 264
  %8 = load i8, ptr %7, align 8, !tbaa !19
  %9 = sext i8 %8 to i32
  %.not = icmp slt i32 %1, %9
  %10 = add nsw i32 %9, -1
  %spec.select = select i1 %.not, i32 %1, i32 %10
  %11 = sext i32 %spec.select to i64
  %12 = getelementptr inbounds ptr, ptr %4, i64 %11
  %13 = load ptr, ptr %12, align 8, !tbaa !20
  tail call void @lv_image_set_src(ptr noundef nonnull %0, ptr noundef %13) #4
  br label %14

14:                                               ; preds = %2, %6
  ret void
}